target datalayout = "e-m:e-p270:32:32-p271:32:32-p272:64:64-i64:64-i128:128-f80:128-n8:16:32:64-S128"
target triple = "x86_64-pc-linux-gnu"

%struct.pmix_topology_t = type { ptr, ptr }

; Function Attrs: nounwind uwtable
define i32 @pmix_hwloc_get_topology_size(ptr noundef %0, ptr noundef %1) #0 {
  %3 = alloca i32, align 4
  %4 = alloca ptr, align 8
  %5 = alloca ptr, align 8
  %6 = alloca i32, align 4
  %7 = alloca i32, align 4
  store ptr %0, ptr %4, align 8, !tbaa !3
  store ptr %1, ptr %5, align 8, !tbaa !31
  call void @llvm.lifetime.start.p0(i64 4, ptr %6) #8
  %8 = load ptr, ptr %4, align 8, !tbaa !3
  %9 = getelementptr inbounds nuw %struct.pmix_topology_t, ptr %8, i32 0, i32 1
  %10 = load ptr, ptr %9, align 8, !tbaa !21
  %11 = load ptr, ptr %5, align 8, !tbaa !31
  %12 = call i32 @hwloc_shmem_topology_get_length(ptr noundef %10, ptr noundef %11, i64 noundef 0)
  store i32 %12, ptr %6, align 4, !tbaa !11
  %13 = load i32, ptr %6, align 4, !tbaa !11
  %14 = icmp ne i32 0, %13
  br i1 %14, label %15, label %17

15:                                               ; preds = %2
  %16 = load ptr, ptr %5, align 8, !tbaa !31
  store i64 0, ptr %16, align 8, !tbaa !27
  store i32 -1, ptr %3, align 4
  store i32 1, ptr %7, align 4
  br label %18

17:                                               ; preds = %2
  store i32 0, ptr %3, align 4
  store i32 1, ptr %7, align 4
  br label %18

18:                                               ; preds = %17, %15
  call void @llvm.lifetime.end.p0(i64 4, ptr %6) #8
  %19 = load i32, ptr %3, align 4
  ret i32 %19
}