; Function Attrs: nounwind uwtable
define range(i32 -1, 1) i32 @pmix_hwloc_get_topology_size(ptr noundef readonly captures(none) %0, ptr noundef %1) local_unnamed_addr #0 {
  %3 = getelementptr inbounds nuw i8, ptr %0, i64 8
  %4 = load ptr, ptr %3, align 8, !tbaa !23
  %5 = tail call i32 @hwloc_shmem_topology_get_length(ptr noundef %4, ptr noundef %1, i64 noundef 0) #7
  %.not = icmp eq i32 %5, 0
  br i1 %.not, label %7, label %6

6:                                                ; preds = %2
  store i64 0, ptr %1, align 8, !tbaa !28
  br label %7

7:                                                ; preds = %2, %6
  %.0 = phi i32 [ -1, %6 ], [ 0, %2 ]
  ret i32 %.0
}